target datalayout = "e-m:e-p270:32:32-p271:32:32-p272:64:64-i64:64-i128:128-f80:128-n8:16:32:64-S128"
target triple = "x86_64-pc-linux-gnu"

%class.ErrorHandler = type <{ i32, i32, i8, i8, i8, i8, i8, i8, [2 x i8] }>
%class.uiMsgStore = type <{ [8 x ptr], [8 x i32], i32, i32, i32, [4 x i8] }>

@.str = private unnamed_addr constant [1 x i32] zeroinitializer, align 4

; Function Attrs: mustprogress nounwind uwtable
define linkonce_odr void @_Z9uiMsgBaseR10uiMsgStore(ptr noundef nonnull align 8 dereferenceable(108) %0) #1 comdat {
  %2 = alloca ptr, align 8
  store ptr %0, ptr %2, align 8
  ret void
}

; Function Attrs: mustprogress uwtable
define linkonce_odr void @_Z9uiMsgBaseIRPKwJEEvR10uiMsgStoreOT_DpOT0_(ptr noundef nonnull align 8 dereferenceable(108) %0, ptr noundef nonnull align 8 dereferenceable(8) %1) #0 comdat {
  %3 = alloca ptr, align 8
  %4 = alloca ptr, align 8
  store ptr %0, ptr %3, align 8
  store ptr %1, ptr %4, align 8
  %5 = load ptr, ptr %3, align 8
  %6 = load ptr, ptr %4, align 8
  %7 = load ptr, ptr %6, align 8
  %8 = call noundef nonnull align 8 dereferenceable(108) ptr @_ZN10uiMsgStorelsEPKw(ptr noundef nonnull align 8 dereferenceable(108) %5, ptr noundef %7)
  %9 = load ptr, ptr %3, align 8
  call void @_Z9uiMsgBaseR10uiMsgStore(ptr noundef nonnull align 8 dereferenceable(108) %9)
  ret void
}

; Function Attrs: mustprogress nounwind uwtable
define linkonce_odr noundef nonnull align 8 dereferenceable(108) ptr @_ZN10uiMsgStorelsEPKw(ptr noundef nonnull align 8 dereferenceable(108) %0, ptr noundef %1) #1 comdat align 2 {
  %3 = alloca ptr, align 8
  %4 = alloca ptr, align 8
  store ptr %0, ptr %3, align 8
  store ptr %1, ptr %4, align 8
  %5 = load ptr, ptr %3, align 8
  %6 = getelementptr inbounds %class.uiMsgStore, ptr %5, i32 0, i32 2
  %7 = load i32, ptr %6, align 8
  %8 = zext i32 %7 to i64
  %9 = icmp ult i64 %8, 8
  br i1 %9, label %10, label %18

10:                                               ; preds = %2
  %11 = load ptr, ptr %4, align 8
  %12 = getelementptr inbounds %class.uiMsgStore, ptr %5, i32 0, i32 0
  %13 = getelementptr inbounds %class.uiMsgStore, ptr %5, i32 0, i32 2
  %14 = load i32, ptr %13, align 8
  %15 = add i32 %14, 1
  store i32 %15, ptr %13, align 8
  %16 = zext i32 %14 to i64
  %17 = getelementptr inbounds [8 x ptr], ptr %12, i64 0, i64 %16
  store ptr %11, ptr %17, align 8
  br label %18

18:                                               ; preds = %10, %2
  ret ptr %5
}

; Function Attrs: mustprogress uwtable
define linkonce_odr void @_Z9uiMsgBaseIRPKwJS2_EEvR10uiMsgStoreOT_DpOT0_(ptr noundef nonnull align 8 dereferenceable(108) %0, ptr noundef nonnull align 8 dereferenceable(8) %1, ptr noundef nonnull align 8 dereferenceable(8) %2) #0 comdat {
  %4 = alloca ptr, align 8
  %5 = alloca ptr, align 8
  %6 = alloca ptr, align 8
  store ptr %0, ptr %4, align 8
  store ptr %1, ptr %5, align 8
  store ptr %2, ptr %6, align 8
  %7 = load ptr, ptr %4, align 8
  %8 = load ptr, ptr %5, align 8
  %9 = load ptr, ptr %8, align 8
  %10 = call noundef nonnull align 8 dereferenceable(108) ptr @_ZN10uiMsgStorelsEPKw(ptr noundef nonnull align 8 dereferenceable(108) %7, ptr noundef %9)
  %11 = load ptr, ptr %4, align 8
  %12 = load ptr, ptr %6, align 8
  call void @_Z9uiMsgBaseIRPKwJEEvR10uiMsgStoreOT_DpOT0_(ptr noundef nonnull align 8 dereferenceable(108) %11, ptr noundef nonnull align 8 dereferenceable(8) %12)
  ret void
}

; Function Attrs: mustprogress nounwind uwtable
define linkonce_odr void @_ZN10uiMsgStoreC2E14UIMESSAGE_CODE(ptr noundef nonnull align 8 dereferenceable(108) %0, i32 noundef %1) unnamed_addr #1 comdat align 2 {
  %3 = alloca ptr, align 8
  %4 = alloca i32, align 4
  %5 = alloca i32, align 4
  store ptr %0, ptr %3, align 8
  store i32 %1, ptr %4, align 4
  %6 = load ptr, ptr %3, align 8
  store i32 0, ptr %5, align 4
  br label %7

7:                                                ; preds = %16, %2
  %8 = load i32, ptr %5, align 4
  %9 = zext i32 %8 to i64
  %10 = icmp ult i64 %9, 8
  br i1 %10, label %11, label %19

11:                                               ; preds = %7
  %12 = getelementptr inbounds %class.uiMsgStore, ptr %6, i32 0, i32 0
  %13 = load i32, ptr %5, align 4
  %14 = zext i32 %13 to i64
  %15 = getelementptr inbounds [8 x ptr], ptr %12, i64 0, i64 %14
  store ptr @.str, ptr %15, align 8
  br label %16

16:                                               ; preds = %11
  %17 = load i32, ptr %5, align 4
  %18 = add i32 %17, 1
  store i32 %18, ptr %5, align 4
  br label %7, !llvm.loop !4

19:                                               ; preds = %7
  %20 = getelementptr inbounds %class.uiMsgStore, ptr %6, i32 0, i32 1
  %21 = getelementptr inbounds [8 x i32], ptr %20, i64 0, i64 0
  call void @llvm.memset.p0.i64(ptr align 8 %21, i8 0, i64 32, i1 false)
  %22 = getelementptr inbounds %class.uiMsgStore, ptr %6, i32 0, i32 2
  store i32 0, ptr %22, align 8
  %23 = getelementptr inbounds %class.uiMsgStore, ptr %6, i32 0, i32 3
  store i32 0, ptr %23, align 4
  %24 = load i32, ptr %4, align 4
  %25 = getelementptr inbounds %class.uiMsgStore, ptr %6, i32 0, i32 4
  store i32 %24, ptr %25, align 8
  ret void
}

; Function Attrs: mustprogress nounwind uwtable
define void @_ZN12ErrorHandler12SetErrorCodeE8RAR_EXIT(ptr noundef nonnull align 4 dereferenceable(14) %0, i32 noundef %1) #1 align 2 {
  %3 = alloca ptr, align 8
  %4 = alloca i32, align 4
  store ptr %0, ptr %3, align 8
  store i32 %1, ptr %4, align 4
  %5 = load ptr, ptr %3, align 8
  %6 = load i32, ptr %4, align 4
  switch i32 %6, label %34 [
    i32 1, label %7
    i32 255, label %7
    i32 3, label %15
    i32 2, label %23
  ]

7:                                                ; preds = %2, %2
  %8 = getelementptr inbounds %class.ErrorHandler, ptr %5, i32 0, i32 0
  %9 = load i32, ptr %8, align 4
  %10 = icmp eq i32 %9, 0
  br i1 %10, label %11, label %14

11:                                               ; preds = %7
  %12 = load i32, ptr %4, align 4
  %13 = getelementptr inbounds %class.ErrorHandler, ptr %5, i32 0, i32 0
  store i32 %12, ptr %13, align 4
  br label %14

14:                                               ; preds = %11, %7
  br label %37

15:                                               ; preds = %2
  %16 = getelementptr inbounds %class.ErrorHandler, ptr %5, i32 0, i32 0
  %17 = load i32, ptr %16, align 4
  %18 = icmp ne i32 %17, 11
  br i1 %18, label %19, label %22

19:                                               ; preds = %15
  %20 = load i32, ptr %4, align 4
  %21 = getelementptr inbounds %class.ErrorHandler, ptr %5, i32 0, i32 0
  store i32 %20, ptr %21, align 4
  br label %22

22:                                               ; preds = %19, %15
  br label %37

23:                                               ; preds = %2
  %24 = getelementptr inbounds %class.ErrorHandler, ptr %5, i32 0, i32 0
  %25 = load i32, ptr %24, align 4
  %26 = icmp eq i32 %25, 0
  br i1 %26, label %31, label %27

27:                                               ; preds = %23
  %28 = getelementptr inbounds %class.ErrorHandler, ptr %5, i32 0, i32 0
  %29 = load i32, ptr %28, align 4
  %30 = icmp eq i32 %29, 1
  br i1 %30, label %31, label %33

31:                                               ; preds = %27, %23
  %32 = getelementptr inbounds %class.ErrorHandler, ptr %5, i32 0, i32 0
  store i32 2, ptr %32, align 4
  br label %33

33:                                               ; preds = %31, %27
  br label %37

34:                                               ; preds = %2
  %35 = load i32, ptr %4, align 4
  %36 = getelementptr inbounds %class.ErrorHandler, ptr %5, i32 0, i32 0
  store i32 %35, ptr %36, align 4
  br label %37

37:                                               ; preds = %34, %33, %22, %14
  %38 = getelementptr inbounds %class.ErrorHandler, ptr %5, i32 0, i32 1
  %39 = load i32, ptr %38, align 4
  %40 = add i32 %39, 1
  store i32 %40, ptr %38, align 4
  ret void
}

; Function Attrs: mustprogress nounwind uwtable
define void @_ZN12ErrorHandler9SysErrMsgEv(ptr noundef nonnull align 4 dereferenceable(14) %0) #1 align 2 {
  %2 = alloca ptr, align 8
  store ptr %0, ptr %2, align 8
  ret void
}

; Function Attrs: mustprogress uwtable
define linkonce_odr void @_Z5uiMsgIJRPKwS2_EEv14UIMESSAGE_CODEDpOT_(i32 noundef %0, ptr noundef nonnull align 8 dereferenceable(8) %1, ptr noundef nonnull align 8 dereferenceable(8) %2) #0 comdat {
  %4 = alloca i32, align 4
  %5 = alloca ptr, align 8
  %6 = alloca ptr, align 8
  %7 = alloca %class.uiMsgStore, align 8
  store i32 %0, ptr %4, align 4
  store ptr %1, ptr %5, align 8
  store ptr %2, ptr %6, align 8
  %8 = load i32, ptr %4, align 4
  call void @_ZN10uiMsgStoreC2E14UIMESSAGE_CODE(ptr noundef nonnull align 8 dereferenceable(108) %7, i32 noundef %8)
  %9 = load ptr, ptr %5, align 8
  %10 = load ptr, ptr %6, align 8
  call void @_Z9uiMsgBaseIRPKwJS2_EEvR10uiMsgStoreOT_DpOT0_(ptr noundef nonnull align 8 dereferenceable(108) %7, ptr noundef nonnull align 8 dereferenceable(8) %9, ptr noundef nonnull align 8 dereferenceable(8) %10)
  call void @_ZN10uiMsgStore3MsgEv(ptr noundef nonnull align 8 dereferenceable(108) %7)
  ret void
}

; Function Attrs: mustprogress uwtable
define void @_ZN12ErrorHandler12ReadErrorMsgEPKwS1_(ptr noundef nonnull align 4 dereferenceable(14) %0, ptr noundef %1, ptr noundef %2) #0 align 2 {
  %4 = alloca ptr, align 8
  %5 = alloca ptr, align 8
  %6 = alloca ptr, align 8
  store ptr %0, ptr %4, align 8
  store ptr %1, ptr %5, align 8
  store ptr %2, ptr %6, align 8
  %7 = load ptr, ptr %4, align 8
  call void @_Z5uiMsgIJRPKwS2_EEv14UIMESSAGE_CODEDpOT_(i32 noundef 12, ptr noundef nonnull align 8 dereferenceable(8) %5, ptr noundef nonnull align 8 dereferenceable(8) %6)
  call void @_ZN12ErrorHandler9SysErrMsgEv(ptr noundef nonnull align 4 dereferenceable(14) %7)
  call void @_ZN12ErrorHandler12SetErrorCodeE8RAR_EXIT(ptr noundef nonnull align 4 dereferenceable(14) %7, i32 noundef 12)
  ret void
}